; Function Attrs: nounwind uwtable
define range(i32 -21, 1) i32 @CVodeSetEtaMin(ptr noundef writeonly %0, double noundef %1) local_unnamed_addr #0 {
  %3 = icmp eq ptr %0, null
  br i1 %3, label %4, label %5

4:                                                ; preds = %2
  tail call void (ptr, i32, i32, ptr, ptr, ptr, ...) @cvProcessError(ptr noundef null, i32 noundef -21, i32 noundef 527, ptr noundef nonnull @__func__.CVodeSetEtaMin, ptr noundef nonnull @.str, ptr noundef nonnull @.str.1) #7
  br label %11

5:                                                ; preds = %2
  %6 = fcmp ole double %1, 0.000000e+00
  %7 = fcmp oge double %1, 1.000000e+00
  %or.cond = or i1 %6, %7
  %8 = getelementptr inbounds nuw i8, ptr %0, i64 808
  br i1 %or.cond, label %9, label %10

9:                                                ; preds = %5
  store double 1.000000e-01, ptr %8, align 8
  br label %11

10:                                               ; preds = %5
  store double %1, ptr %8, align 8
  br label %11

11:                                               ; preds = %9, %10, %4
  %.0 = phi i32 [ -21, %4 ], [ 0, %10 ], [ 0, %9 ]
  ret i32 %.0
}